target datalayout = "e-m:e-p270:32:32-p271:32:32-p272:64:64-i64:64-i128:128-f80:128-n8:16:32:64-S128"
target triple = "x86_64-pc-linux-gnu"

; Function Attrs: mustprogress nounwind uwtable
define linkonce_odr hidden noundef i64 @_ZN4llvm25trailing_objects_internal19TrailingObjectsImplILi8EN5clang11OMPChildrenENS_15TrailingObjectsIS3_JPNS2_9OMPClauseEPNS2_4StmtEEEES8_JEE25additionalSizeToAllocImplEm(i64 noundef %0) #0 comdat align 2 {
  %2 = alloca i64, align 8
  store i64 %0, ptr %2, align 8
  %3 = load i64, ptr %2, align 8
  ret i64 %3
}

; Function Attrs: mustprogress nounwind uwtable
define linkonce_odr hidden noundef i64 @_ZN4llvm25trailing_objects_internal19TrailingObjectsImplILi8EN5clang11OMPChildrenENS_15TrailingObjectsIS3_JPNS2_9OMPClauseEPNS2_4StmtEEEES6_JS8_EE25additionalSizeToAllocImplEmm(i64 noundef %0, i64 noundef %1) #0 comdat align 2 {
  %3 = alloca i64, align 8
  %4 = alloca i64, align 8
  store i64 %0, ptr %3, align 8
  store i64 %1, ptr %4, align 8
  %5 = load i64, ptr %3, align 8
  %6 = load i64, ptr %4, align 8
  %7 = mul i64 8, %6
  %8 = add i64 %5, %7
  %9 = call noundef i64 @_ZN4llvm25trailing_objects_internal19TrailingObjectsImplILi8EN5clang11OMPChildrenENS_15TrailingObjectsIS3_JPNS2_9OMPClauseEPNS2_4StmtEEEES8_JEE25additionalSizeToAllocImplEm(i64 noundef %8)
  ret i64 %9
}

; Function Attrs: mustprogress nounwind uwtable
define linkonce_odr hidden noundef i64 @_ZN4llvm10divideCeilEmm(i64 noundef %0, i64 noundef %1) #0 comdat {
  %3 = alloca i64, align 8
  %4 = alloca i64, align 8
  %5 = alloca i64, align 8
  store i64 %0, ptr %3, align 8
  store i64 %1, ptr %4, align 8
  %6 = load i64, ptr %3, align 8
  %7 = icmp ne i64 %6, 0
  %8 = zext i1 %7 to i64
  store i64 %8, ptr %5, align 8
  %9 = load i64, ptr %3, align 8
  %10 = load i64, ptr %5, align 8
  %11 = sub i64 %9, %10
  %12 = load i64, ptr %4, align 8
  %13 = udiv i64 %11, %12
  %14 = load i64, ptr %5, align 8
  %15 = add i64 %13, %14
  ret i64 %15
}

; Function Attrs: mustprogress nounwind uwtable
define linkonce_odr hidden noundef i64 @_ZN4llvm25trailing_objects_internal19TrailingObjectsImplILi8EN5clang11OMPChildrenENS_15TrailingObjectsIS3_JPNS2_9OMPClauseEPNS2_4StmtEEEES3_JS6_S8_EE25additionalSizeToAllocImplEmmm(i64 noundef %0, i64 noundef %1, i64 noundef %2) #0 comdat align 2 {
  %4 = alloca i64, align 8
  %5 = alloca i64, align 8
  %6 = alloca i64, align 8
  store i64 %0, ptr %4, align 8
  store i64 %1, ptr %5, align 8
  store i64 %2, ptr %6, align 8
  %7 = load i64, ptr %4, align 8
  %8 = load i64, ptr %5, align 8
  %9 = mul i64 8, %8
  %10 = add i64 %7, %9
  %11 = load i64, ptr %6, align 8
  %12 = call noundef i64 @_ZN4llvm25trailing_objects_internal19TrailingObjectsImplILi8EN5clang11OMPChildrenENS_15TrailingObjectsIS3_JPNS2_9OMPClauseEPNS2_4StmtEEEES6_JS8_EE25additionalSizeToAllocImplEmm(i64 noundef %10, i64 noundef %11)
  ret i64 %12
}

; Function Attrs: mustprogress nounwind uwtable
define linkonce_odr hidden noundef i64 @_ZN4llvm7alignToEmm(i64 noundef %0, i64 noundef %1) #0 comdat {
  %3 = alloca i64, align 8
  %4 = alloca i64, align 8
  %5 = alloca i64, align 8
  store i64 %0, ptr %3, align 8
  store i64 %1, ptr %4, align 8
  %6 = load i64, ptr %3, align 8
  %7 = load i64, ptr %4, align 8
  %8 = call noundef i64 @_ZN4llvm10divideCeilEmm(i64 noundef %6, i64 noundef %7)
  store i64 %8, ptr %5, align 8
  %9 = load i64, ptr %5, align 8
  %10 = load i64, ptr %4, align 8
  %11 = mul i64 %9, %10
  ret i64 %11
}

; Function Attrs: mustprogress nounwind uwtable
define linkonce_odr hidden noundef i64 @_ZN4llvm15TrailingObjectsIN5clang11OMPChildrenEJPNS1_9OMPClauseEPNS1_4StmtEEE16totalSizeToAllocIJS4_S6_EEENSt9enable_ifIXsr3stdE9is_same_vINS7_3FooIJS4_S6_EEENSA_IJDpT_EEEEEmE4typeEmm(i64 noundef %0, i64 noundef %1) #0 comdat align 2 {
  %3 = alloca i64, align 8
  %4 = alloca i64, align 8
  store i64 %0, ptr %3, align 8
  store i64 %1, ptr %4, align 8
  %5 = load i64, ptr %3, align 8
  %6 = load i64, ptr %4, align 8
  %7 = call noundef i64 @_ZN4llvm25trailing_objects_internal19TrailingObjectsImplILi8EN5clang11OMPChildrenENS_15TrailingObjectsIS3_JPNS2_9OMPClauseEPNS2_4StmtEEEES3_JS6_S8_EE25additionalSizeToAllocImplEmmm(i64 noundef 0, i64 noundef %5, i64 noundef %6)
  %8 = add i64 16, %7
  ret i64 %8
}

; Function Attrs: mustprogress nounwind uwtable
define dso_local noundef i64 @_ZN5clang11OMPChildren4sizeEjbj(i32 noundef %0, i1 noundef zeroext %1, i32 noundef %2) #0 align 2 {
  %4 = alloca i32, align 4
  %5 = alloca i8, align 1
  %6 = alloca i32, align 4
  store i32 %0, ptr %4, align 4
  %7 = zext i1 %1 to i8
  store i8 %7, ptr %5, align 1
  store i32 %2, ptr %6, align 4
  %8 = load i32, ptr %4, align 4
  %9 = zext i32 %8 to i64
  %10 = load i32, ptr %6, align 4
  %11 = load i8, ptr %5, align 1
  %12 = trunc i8 %11 to i1
  %13 = select i1 %12, i32 1, i32 0
  %14 = add i32 %10, %13
  %15 = zext i32 %14 to i64
  %16 = call noundef i64 @_ZN4llvm15TrailingObjectsIN5clang11OMPChildrenEJPNS1_9OMPClauseEPNS1_4StmtEEE16totalSizeToAllocIJS4_S6_EEENSt9enable_ifIXsr3stdE9is_same_vINS7_3FooIJS4_S6_EEENSA_IJDpT_EEEEEmE4typeEmm(i64 noundef %9, i64 noundef %15)
  %17 = call noundef i64 @_ZN4llvm7alignToEmm(i64 noundef %16, i64 noundef 8)
  ret i64 %17
}