; Function Attrs: mustprogress nofree norecurse nosync nounwind willreturn memory(none) uwtable
define dso_local noundef range(i64 16, 68719476737) i64 @_ZN5clang11OMPChildren4sizeEjbj(i32 noundef %0, i1 noundef zeroext %1, i32 noundef %2) local_unnamed_addr #0 align 2 {
  %4 = zext i32 %0 to i64
  %5 = zext i1 %1 to i32
  %6 = add i32 %2, %5
  %7 = zext i32 %6 to i64
  %reass.add.i.i = add nuw nsw i64 %7, %4
  %8 = shl nuw nsw i64 %reass.add.i.i, 3
  %9 = add nuw nsw i64 %8, 16
  ret i64 %9
}